target datalayout = "e-m:e-p270:32:32-p271:32:32-p272:64:64-i64:64-i128:128-f80:128-n8:16:32:64-S128"
target triple = "x86_64-pc-linux-gnu"

%struct.lzma_lz_encoder = type { ptr, ptr, ptr, ptr }
%struct.lzma_lzma2_coder = type { i32, ptr, %struct.lzma_options_lzma, i8, i8, i8, i64, i64, i64, [65542 x i8] }
%struct.lzma_options_lzma = type { i32, ptr, i32, i32, i32, i32, i32, i32, i32, i32, i32, i32, i32, i32, i32, i32, i32, i32, i32, i32, i32, i32, ptr, ptr }
%struct.lzma_lz_options = type { i64, i64, i64, i64, i64, i32, i32, ptr, i32 }

; Function Attrs: nounwind uwtable
define internal i32 @lzma2_encoder_init(ptr noundef %0, ptr noundef %1, ptr noundef %2, ptr noundef %3) #0 {
  %5 = alloca i32, align 4
  %6 = alloca ptr, align 8
  %7 = alloca ptr, align 8
  %8 = alloca ptr, align 8
  %9 = alloca ptr, align 8
  %10 = alloca ptr, align 8
  %11 = alloca i32, align 4
  store ptr %0, ptr %6, align 8
  store ptr %1, ptr %7, align 8
  store ptr %2, ptr %8, align 8
  store ptr %3, ptr %9, align 8
  %12 = load ptr, ptr %8, align 8
  %13 = icmp eq ptr %12, null
  br i1 %13, label %14, label %15

14:                                               ; preds = %4
  store i32 11, ptr %5, align 4
  br label %95

15:                                               ; preds = %4
  %16 = load ptr, ptr %6, align 8
  %17 = getelementptr inbounds %struct.lzma_lz_encoder, ptr %16, i32 0, i32 0
  %18 = load ptr, ptr %17, align 8
  store ptr %18, ptr %10, align 8
  %19 = load ptr, ptr %10, align 8
  %20 = icmp eq ptr %19, null
  br i1 %20, label %21, label %39

21:                                               ; preds = %15
  %22 = load ptr, ptr %7, align 8
  %23 = call noalias ptr @lzma_alloc(i64 noundef 65704, ptr noundef %22)
  store ptr %23, ptr %10, align 8
  %24 = load ptr, ptr %10, align 8
  %25 = icmp eq ptr %24, null
  br i1 %25, label %26, label %27

26:                                               ; preds = %21
  store i32 5, ptr %5, align 4
  br label %95

27:                                               ; preds = %21
  %28 = load ptr, ptr %10, align 8
  %29 = load ptr, ptr %6, align 8
  %30 = getelementptr inbounds %struct.lzma_lz_encoder, ptr %29, i32 0, i32 0
  store ptr %28, ptr %30, align 8
  %31 = load ptr, ptr %6, align 8
  %32 = getelementptr inbounds %struct.lzma_lz_encoder, ptr %31, i32 0, i32 1
  store ptr @lzma2_encode, ptr %32, align 8
  %33 = load ptr, ptr %6, align 8
  %34 = getelementptr inbounds %struct.lzma_lz_encoder, ptr %33, i32 0, i32 2
  store ptr @lzma2_encoder_end, ptr %34, align 8
  %35 = load ptr, ptr %6, align 8
  %36 = getelementptr inbounds %struct.lzma_lz_encoder, ptr %35, i32 0, i32 3
  store ptr @lzma2_encoder_options_update, ptr %36, align 8
  %37 = load ptr, ptr %10, align 8
  %38 = getelementptr inbounds %struct.lzma_lzma2_coder, ptr %37, i32 0, i32 1
  store ptr null, ptr %38, align 8
  br label %39

39:                                               ; preds = %27, %15
  %40 = load ptr, ptr %10, align 8
  %41 = getelementptr inbounds %struct.lzma_lzma2_coder, ptr %40, i32 0, i32 2
  %42 = load ptr, ptr %8, align 8
  call void @llvm.memcpy.p0.p0.i64(ptr align 8 %41, ptr align 8 %42, i64 112, i1 false)
  %43 = load ptr, ptr %10, align 8
  %44 = getelementptr inbounds %struct.lzma_lzma2_coder, ptr %43, i32 0, i32 0
  store i32 0, ptr %44, align 8
  %45 = load ptr, ptr %10, align 8
  %46 = getelementptr inbounds %struct.lzma_lzma2_coder, ptr %45, i32 0, i32 3
  store i8 1, ptr %46, align 8
  %47 = load ptr, ptr %10, align 8
  %48 = getelementptr inbounds %struct.lzma_lzma2_coder, ptr %47, i32 0, i32 4
  store i8 0, ptr %48, align 1
  %49 = load ptr, ptr %10, align 8
  %50 = getelementptr inbounds %struct.lzma_lzma2_coder, ptr %49, i32 0, i32 2
  %51 = getelementptr inbounds %struct.lzma_options_lzma, ptr %50, i32 0, i32 1
  %52 = load ptr, ptr %51, align 8
  %53 = icmp eq ptr %52, null
  br i1 %53, label %60, label %54

54:                                               ; preds = %39
  %55 = load ptr, ptr %10, align 8
  %56 = getelementptr inbounds %struct.lzma_lzma2_coder, ptr %55, i32 0, i32 2
  %57 = getelementptr inbounds %struct.lzma_options_lzma, ptr %56, i32 0, i32 2
  %58 = load i32, ptr %57, align 8
  %59 = icmp eq i32 %58, 0
  br label %60

60:                                               ; preds = %54, %39
  %61 = phi i1 [ true, %39 ], [ %59, %54 ]
  %62 = load ptr, ptr %10, align 8
  %63 = getelementptr inbounds %struct.lzma_lzma2_coder, ptr %62, i32 0, i32 5
  %64 = zext i1 %61 to i8
  store i8 %64, ptr %63, align 2
  br label %65

65:                                               ; preds = %60
  %66 = load ptr, ptr %10, align 8
  %67 = getelementptr inbounds %struct.lzma_lzma2_coder, ptr %66, i32 0, i32 1
  %68 = load ptr, ptr %7, align 8
  %69 = load ptr, ptr %10, align 8
  %70 = getelementptr inbounds %struct.lzma_lzma2_coder, ptr %69, i32 0, i32 2
  %71 = load ptr, ptr %9, align 8
  %72 = call i32 @lzma_lzma_encoder_create(ptr noundef %67, ptr noundef %68, ptr noundef %70, ptr noundef %71)
  store i32 %72, ptr %11, align 4
  %73 = load i32, ptr %11, align 4
  %74 = icmp ne i32 %73, 0
  br i1 %74, label %75, label %77

75:                                               ; preds = %65
  %76 = load i32, ptr %11, align 4
  store i32 %76, ptr %5, align 4
  br label %95

77:                                               ; preds = %65
  br label %78

78:                                               ; preds = %77
  %79 = load ptr, ptr %9, align 8
  %80 = getelementptr inbounds %struct.lzma_lz_options, ptr %79, i32 0, i32 0
  %81 = load i64, ptr %80, align 8
  %82 = load ptr, ptr %9, align 8
  %83 = getelementptr inbounds %struct.lzma_lz_options, ptr %82, i32 0, i32 1
  %84 = load i64, ptr %83, align 8
  %85 = add i64 %81, %84
  %86 = icmp ult i64 %85, 65536
  br i1 %86, label %87, label %94

87:                                               ; preds = %78
  %88 = load ptr, ptr %9, align 8
  %89 = getelementptr inbounds %struct.lzma_lz_options, ptr %88, i32 0, i32 1
  %90 = load i64, ptr %89, align 8
  %91 = sub i64 65536, %90
  %92 = load ptr, ptr %9, align 8
  %93 = getelementptr inbounds %struct.lzma_lz_options, ptr %92, i32 0, i32 0
  store i64 %91, ptr %93, align 8
  br label %94

94:                                               ; preds = %87, %78
  store i32 0, ptr %5, align 4
  br label %95

95:                                               ; preds = %94, %75, %26, %14
  %96 = load i32, ptr %5, align 4
  ret i32 %96
}