; Function Attrs: nounwind uwtable
define internal i32 @lzma2_encoder_init(ptr noundef captures(none) %0, ptr noundef %1, ptr noundef readonly %2, ptr noundef %3) #0 {
  %5 = icmp eq ptr %2, null
  br i1 %5, label %42, label %6

6:                                                ; preds = %4
  %7 = load ptr, ptr %0, align 8
  %8 = icmp eq ptr %7, null
  br i1 %8, label %9, label %17

9:                                                ; preds = %6
  %10 = tail call noalias ptr @lzma_alloc(i64 noundef 65704, ptr noundef %1) #8
  %11 = icmp eq ptr %10, null
  br i1 %11, label %42, label %12

12:                                               ; preds = %9
  store ptr %10, ptr %0, align 8
  %13 = getelementptr inbounds nuw i8, ptr %0, i64 8
  store ptr @lzma2_encode, ptr %13, align 8
  %14 = getelementptr inbounds nuw i8, ptr %0, i64 16
  store ptr @lzma2_encoder_end, ptr %14, align 8
  %15 = getelementptr inbounds nuw i8, ptr %0, i64 24
  store ptr @lzma2_encoder_options_update, ptr %15, align 8
  %16 = getelementptr inbounds nuw i8, ptr %10, i64 8
  store ptr null, ptr %16, align 8
  br label %17

17:                                               ; preds = %12, %6
  %.029 = phi ptr [ %10, %12 ], [ %7, %6 ]
  %18 = getelementptr inbounds nuw i8, ptr %.029, i64 16
  tail call void @llvm.memcpy.p0.p0.i64(ptr noundef nonnull align 8 dereferenceable(112) %18, ptr noundef nonnull align 8 dereferenceable(112) %2, i64 112, i1 false)
  store i32 0, ptr %.029, align 8
  %19 = getelementptr inbounds nuw i8, ptr %.029, i64 128
  store i8 1, ptr %19, align 8
  %20 = getelementptr inbounds nuw i8, ptr %.029, i64 129
  store i8 0, ptr %20, align 1
  %21 = getelementptr inbounds nuw i8, ptr %.029, i64 24
  %22 = load ptr, ptr %21, align 8
  %23 = icmp eq ptr %22, null
  br i1 %23, label %29, label %24

24:                                               ; preds = %17
  %25 = getelementptr inbounds nuw i8, ptr %.029, i64 32
  %26 = load i32, ptr %25, align 8
  %27 = icmp eq i32 %26, 0
  %28 = zext i1 %27 to i8
  br label %29

29:                                               ; preds = %24, %17
  %30 = phi i8 [ 1, %17 ], [ %28, %24 ]
  %31 = getelementptr inbounds nuw i8, ptr %.029, i64 130
  store i8 %30, ptr %31, align 2
  %32 = getelementptr inbounds nuw i8, ptr %.029, i64 8
  %33 = tail call i32 @lzma_lzma_encoder_create(ptr noundef nonnull %32, ptr noundef %1, ptr noundef nonnull %18, ptr noundef %3) #8
  %.not = icmp eq i32 %33, 0
  br i1 %.not, label %34, label %42

34:                                               ; preds = %29
  %35 = load i64, ptr %3, align 8
  %36 = getelementptr inbounds nuw i8, ptr %3, i64 8
  %37 = load i64, ptr %36, align 8
  %38 = add i64 %37, %35
  %39 = icmp ult i64 %38, 65536
  br i1 %39, label %40, label %42

40:                                               ; preds = %34
  %41 = sub i64 65536, %37
  store i64 %41, ptr %3, align 8
  br label %42

42:                                               ; preds = %34, %40, %29, %9, %4
  %.0 = phi i32 [ 11, %4 ], [ 5, %9 ], [ %33, %29 ], [ 0, %40 ], [ 0, %34 ]
  ret i32 %.0
}